#include <math.h>
#include <stdio.h>
#include <stdlib.h>
#include <string.h>

int main(){
	double a;
	scanf("%lf",&a);
	char x[1000],y[1000];
	scanf("%s %s",x,y);
	int l=strlen(x),k=0,o=strlen(y);
	if(l!=o){
		printf("error");
		return 0;
	}
	for(int i=0;i<l;i++){
		if(!(x[i]=='A'||x[i]=='T'||x[i]=='G'||x[i]=='C')){
			printf("error");
			return 0;
		}
		if(!(y[i]=='A'||y[i]=='T'||y[i]=='G'||y[i]=='C')){
			printf("error");
			return 0;
		}
		if(x[i]==y[i]){
			k++;
		}
	}
	if(1.0*k/l>a){
		printf("yes");
	}else{
		printf("no");
	}
	return 0;
}
